target datalayout = "e-m:e-p270:32:32-p271:32:32-p272:64:64-i64:64-i128:128-f80:128-n8:16:32:64-S128"
target triple = "x86_64-pc-linux-gnu"

%class.Register = type { i32 }
%class.StubCodeMark = type { ptr, ptr }
%class.Label = type <{ i32, [4 x i32], i32, ptr, i8, [7 x i8] }>
%class.StubCodeGenerator = type { ptr, i8, ptr }
%class.CodeSection = type { ptr, ptr, ptr, ptr, ptr, ptr, ptr, ptr, i8, i8, i32, i8, ptr }
%class.AbstractAssembler = type { ptr, ptr, ptr }

@.str = private unnamed_addr constant [13 x i8] c"StubRoutines\00", align 1
@_ZL7c_rarg0 = internal constant %class.Register { i32 7 }, align 4
@CodeEntryAlignment = external global i64, align 8
@.str.19 = private unnamed_addr constant [27 x i8] c"_data_cache_writeback_sync\00", align 1

; Function Attrs: mustprogress nounwind uwtable
define linkonce_odr hidden noundef ptr @_ZNK11CodeSection3endEv(ptr noundef nonnull align 8 dereferenceable(88) %0) #1 comdat align 2 {
  %2 = alloca ptr, align 8
  store ptr %0, ptr %2, align 8
  %3 = load ptr, ptr %2, align 8
  %4 = getelementptr inbounds %class.CodeSection, ptr %3, i32 0, i32 2
  %5 = load ptr, ptr %4, align 8
  ret ptr %5
}

; Function Attrs: mustprogress nounwind uwtable
define linkonce_odr hidden noundef ptr @_ZNK17AbstractAssembler12code_sectionEv(ptr noundef nonnull align 8 dereferenceable(24) %0) #1 comdat align 2 {
  %2 = alloca ptr, align 8
  store ptr %0, ptr %2, align 8
  %3 = load ptr, ptr %2, align 8
  %4 = getelementptr inbounds %class.AbstractAssembler, ptr %3, i32 0, i32 1
  %5 = load ptr, ptr %4, align 8
  ret ptr %5
}

; Function Attrs: mustprogress nounwind uwtable
define linkonce_odr hidden void @_ZN5Label4initEv(ptr noundef nonnull align 8 dereferenceable(33) %0) #1 comdat align 2 {
  %2 = alloca ptr, align 8
  store ptr %0, ptr %2, align 8
  %3 = load ptr, ptr %2, align 8
  %4 = getelementptr inbounds %class.Label, ptr %3, i32 0, i32 0
  store i32 -1, ptr %4, align 8
  %5 = getelementptr inbounds %class.Label, ptr %3, i32 0, i32 2
  store i32 0, ptr %5, align 4
  %6 = getelementptr inbounds %class.Label, ptr %3, i32 0, i32 3
  store ptr null, ptr %6, align 8
  %7 = getelementptr inbounds %class.Label, ptr %3, i32 0, i32 4
  store i8 0, ptr %7, align 8
  ret void
}

; Function Attrs: mustprogress nounwind uwtable
define linkonce_odr hidden void @_ZN5LabelD2Ev(ptr noundef nonnull align 8 dereferenceable(33) %0) unnamed_addr #1 comdat align 2 {
  %2 = alloca ptr, align 8
  store ptr %0, ptr %2, align 8
  ret void
}

; Function Attrs: mustprogress nounwind uwtable
define linkonce_odr hidden noundef ptr @_ZNK17AbstractAssembler2pcEv(ptr noundef nonnull align 8 dereferenceable(24) %0) #1 comdat align 2 {
  %2 = alloca ptr, align 8
  store ptr %0, ptr %2, align 8
  %3 = load ptr, ptr %2, align 8
  %4 = call noundef ptr @_ZNK17AbstractAssembler12code_sectionEv(ptr noundef nonnull align 8 dereferenceable(24) %3)
  %5 = call noundef ptr @_ZNK11CodeSection3endEv(ptr noundef nonnull align 8 dereferenceable(88) %4)
  ret ptr %5
}

; Function Attrs: mustprogress nounwind uwtable
define linkonce_odr hidden void @_ZN5LabelC2Ev(ptr noundef nonnull align 8 dereferenceable(33) %0) unnamed_addr #1 comdat align 2 {
  %2 = alloca ptr, align 8
  store ptr %0, ptr %2, align 8
  %3 = load ptr, ptr %2, align 8
  call void @_ZN5Label4initEv(ptr noundef nonnull align 8 dereferenceable(33) %3)
  ret void
}

; Function Attrs: mustprogress nounwind uwtable
define hidden noundef ptr @_ZN13StubGenerator34generate_data_cache_writeback_syncEv(ptr noundef nonnull align 8 dereferenceable(24) %0) #1 align 2 {
  %2 = alloca ptr, align 8
  %3 = alloca %class.Register, align 4
  %4 = alloca %class.StubCodeMark, align 8
  %5 = alloca %class.Label, align 8
  %6 = alloca ptr, align 8
  %7 = alloca %class.Register, align 4
  store ptr %0, ptr %2, align 8
  %8 = load ptr, ptr %2, align 8
  call void @llvm.memcpy.p0.p0.i64(ptr align 4 %3, ptr align 4 @_ZL7c_rarg0, i64 4, i1 false)
  %9 = getelementptr inbounds %class.StubCodeGenerator, ptr %8, i32 0, i32 2
  %10 = load ptr, ptr %9, align 8
  %11 = load i64, ptr @CodeEntryAlignment, align 8
  %12 = trunc i64 %11 to i32
  call void @_ZN14MacroAssembler5alignEj(ptr noundef nonnull align 8 dereferenceable(40) %10, i32 noundef %12)
  call void @_ZN12StubCodeMarkC1EP17StubCodeGeneratorPKcS3_(ptr noundef nonnull align 8 dereferenceable(16) %4, ptr noundef %8, ptr noundef @.str, ptr noundef @.str.19)
  call void @_ZN5LabelC2Ev(ptr noundef nonnull align 8 dereferenceable(33) %5)
  %13 = getelementptr inbounds %class.StubCodeGenerator, ptr %8, i32 0, i32 2
  %14 = load ptr, ptr %13, align 8
  %15 = call noundef ptr @_ZNK17AbstractAssembler2pcEv(ptr noundef nonnull align 8 dereferenceable(24) %14)
  store ptr %15, ptr %6, align 8
  %16 = getelementptr inbounds %class.StubCodeGenerator, ptr %8, i32 0, i32 2
  %17 = load ptr, ptr %16, align 8
  call void @_ZN14MacroAssembler5enterEv(ptr noundef nonnull align 8 dereferenceable(40) %17)
  %18 = getelementptr inbounds %class.StubCodeGenerator, ptr %8, i32 0, i32 2
  %19 = load ptr, ptr %18, align 8
  call void @llvm.memcpy.p0.p0.i64(ptr align 4 %7, ptr align 4 %3, i64 4, i1 false)
  %20 = getelementptr inbounds %class.Register, ptr %7, i32 0, i32 0
  %21 = load i32, ptr %20, align 4
  call void @_ZN9Assembler4cmplE8Registeri(ptr noundef nonnull align 8 dereferenceable(40) %19, i32 %21, i32 noundef 0)
  %22 = getelementptr inbounds %class.StubCodeGenerator, ptr %8, i32 0, i32 2
  %23 = load ptr, ptr %22, align 8
  call void @_ZN9Assembler3jccENS_9ConditionER5Labelb(ptr noundef nonnull align 8 dereferenceable(40) %23, i32 noundef 5, ptr noundef nonnull align 8 dereferenceable(33) %5, i1 noundef zeroext true)
  %24 = getelementptr inbounds %class.StubCodeGenerator, ptr %8, i32 0, i32 2
  %25 = load ptr, ptr %24, align 8
  call void @_ZN14MacroAssembler12cache_wbsyncEb(ptr noundef nonnull align 8 dereferenceable(40) %25, i1 noundef zeroext false)
  %26 = getelementptr inbounds %class.StubCodeGenerator, ptr %8, i32 0, i32 2
  %27 = load ptr, ptr %26, align 8
  call void @_ZN17AbstractAssembler4bindER5Label(ptr noundef nonnull align 8 dereferenceable(24) %27, ptr noundef nonnull align 8 dereferenceable(33) %5)
  %28 = getelementptr inbounds %class.StubCodeGenerator, ptr %8, i32 0, i32 2
  %29 = load ptr, ptr %28, align 8
  call void @_ZN14MacroAssembler5leaveEv(ptr noundef nonnull align 8 dereferenceable(40) %29)
  %30 = getelementptr inbounds %class.StubCodeGenerator, ptr %8, i32 0, i32 2
  %31 = load ptr, ptr %30, align 8
  call void @_ZN9Assembler3retEi(ptr noundef nonnull align 8 dereferenceable(40) %31, i32 noundef 0)
  %32 = load ptr, ptr %6, align 8
  call void @_ZN5LabelD2Ev(ptr noundef nonnull align 8 dereferenceable(33) %5) #7
  call void @_ZN12StubCodeMarkD1Ev(ptr noundef nonnull align 8 dereferenceable(16) %4) #7
  ret ptr %32
}