; Function Attrs: mustprogress nounwind uwtable
define hidden noundef ptr @_ZN13StubGenerator34generate_data_cache_writeback_syncEv(ptr noundef nonnull align 8 dereferenceable(24) %0) local_unnamed_addr #0 align 2 {
  %2 = alloca %class.StubCodeMark, align 8
  %3 = alloca %class.Label, align 8
  %4 = getelementptr inbounds i8, ptr %0, i64 16
  %5 = load ptr, ptr %4, align 8
  %6 = load i64, ptr @CodeEntryAlignment, align 8
  %7 = trunc i64 %6 to i32
  tail call void @_ZN14MacroAssembler5alignEj(ptr noundef nonnull align 8 dereferenceable(40) %5, i32 noundef %7) #12
  call void @_ZN12StubCodeMarkC1EP17StubCodeGeneratorPKcS3_(ptr noundef nonnull align 8 dereferenceable(16) %2, ptr noundef nonnull %0, ptr noundef nonnull @.str, ptr noundef nonnull @.str.19) #12
  store i32 -1, ptr %3, align 8
  %8 = getelementptr inbounds i8, ptr %3, i64 20
  store i32 0, ptr %8, align 4
  %9 = getelementptr inbounds i8, ptr %3, i64 24
  store ptr null, ptr %9, align 8
  %10 = getelementptr inbounds i8, ptr %3, i64 32
  store i8 0, ptr %10, align 8
  %11 = load ptr, ptr %4, align 8
  %12 = getelementptr inbounds i8, ptr %11, i64 8
  %13 = load ptr, ptr %12, align 8
  %14 = getelementptr inbounds i8, ptr %13, i64 16
  %15 = load ptr, ptr %14, align 8
  call void @_ZN14MacroAssembler5enterEv(ptr noundef nonnull align 8 dereferenceable(40) %11) #12
  %16 = load ptr, ptr %4, align 8
  call void @_ZN9Assembler4cmplE8Registeri(ptr noundef nonnull align 8 dereferenceable(40) %16, i32 7, i32 noundef 0) #12
  %17 = load ptr, ptr %4, align 8
  call void @_ZN9Assembler3jccENS_9ConditionER5Labelb(ptr noundef nonnull align 8 dereferenceable(40) %17, i32 noundef 5, ptr noundef nonnull align 8 dereferenceable(33) %3, i1 noundef zeroext true) #12
  %18 = load ptr, ptr %4, align 8
  call void @_ZN14MacroAssembler12cache_wbsyncEb(ptr noundef nonnull align 8 dereferenceable(40) %18, i1 noundef zeroext false) #12
  %19 = load ptr, ptr %4, align 8
  call void @_ZN17AbstractAssembler4bindER5Label(ptr noundef nonnull align 8 dereferenceable(24) %19, ptr noundef nonnull align 8 dereferenceable(33) %3) #12
  %20 = load ptr, ptr %4, align 8
  call void @_ZN14MacroAssembler5leaveEv(ptr noundef nonnull align 8 dereferenceable(40) %20) #12
  %21 = load ptr, ptr %4, align 8
  call void @_ZN9Assembler3retEi(ptr noundef nonnull align 8 dereferenceable(40) %21, i32 noundef 0) #12
  call void @_ZN12StubCodeMarkD1Ev(ptr noundef nonnull align 8 dereferenceable(16) %2) #12
  ret ptr %15
}